; ModuleID = '2/182.c'
source_filename = "2/182.c"
target datalayout = "e-m:e-p270:32:32-p271:32:32-p272:64:64-i64:64-f80:128-n8:16:32:64-S128"
target triple = "x86_64-pc-linux-gnu"

%struct.author = type { i32, [27 x i8] }

@.str = private unnamed_addr constant [3 x i8] c"%d\00", align 1
@.str.1 = private unnamed_addr constant [6 x i8] c"%d %s\00", align 1
@a = common dso_local global [999 x %struct.author] zeroinitializer, align 16
@.str.2 = private unnamed_addr constant [7 x i8] c"%c\0A%d\0A\00", align 1
@.str.3 = private unnamed_addr constant [4 x i8] c"%d\0A\00", align 1

; Function Attrs: noinline nounwind uwtable
define dso_local void @main() #0 {
  %1 = alloca i32, align 4
  %2 = alloca i32, align 4
  %3 = alloca [30 x i32], align 16
  %4 = alloca i32, align 4
  %5 = alloca i32, align 4
  %6 = alloca i32, align 4
  %7 = alloca i32, align 4
  %8 = alloca i8, align 1
  %9 = bitcast [30 x i32]* %3 to i8*
  call void @llvm.memset.p0i8.i64(i8* align 16 %9, i8 0, i64 120, i1 false)
  store i32 0, i32* %4, align 4
  store i32 0, i32* %6, align 4
  store i32 9, i32* %7, align 4
  %10 = call i32 (i8*, ...) @__isoc99_scanf(i8* getelementptr inbounds ([3 x i8], [3 x i8]* @.str, i64 0, i64 0), i32* %1)
  store i32 0, i32* %2, align 4
  br label %11

11:                                               ; preds = %56, %0
  %12 = load i32, i32* %2, align 4
  %13 = load i32, i32* %1, align 4
  %14 = icmp slt i32 %12, %13
  br i1 %14, label %15, label %59

15:                                               ; preds = %11
  %16 = load i32, i32* %2, align 4
  %17 = sext i32 %16 to i64
  %18 = getelementptr inbounds [999 x %struct.author], [999 x %struct.author]* @a, i64 0, i64 %17
  %19 = getelementptr inbounds %struct.author, %struct.author* %18, i32 0, i32 0
  %20 = load i32, i32* %2, align 4
  %21 = sext i32 %20 to i64
  %22 = getelementptr inbounds [999 x %struct.author], [999 x %struct.author]* @a, i64 0, i64 %21
  %23 = getelementptr inbounds %struct.author, %struct.author* %22, i32 0, i32 1
  %24 = call i32 (i8*, ...) @__isoc99_scanf(i8* getelementptr inbounds ([6 x i8], [6 x i8]* @.str.1, i64 0, i64 0), i32* %19, [27 x i8]* %23)
  %25 = load i32, i32* %2, align 4
  %26 = sext i32 %25 to i64
  %27 = getelementptr inbounds [999 x %struct.author], [999 x %struct.author]* @a, i64 0, i64 %26
  %28 = getelementptr inbounds %struct.author, %struct.author* %27, i32 0, i32 1
  %29 = getelementptr inbounds [27 x i8], [27 x i8]* %28, i64 0, i64 0
  %30 = call i64 @strlen(i8* %29) #4
  %31 = trunc i64 %30 to i32
  store i32 %31, i32* %4, align 4
  store i32 0, i32* %5, align 4
  br label %32

32:                                               ; preds = %52, %15
  %33 = load i32, i32* %5, align 4
  %34 = load i32, i32* %4, align 4
  %35 = icmp slt i32 %33, %34
  br i1 %35, label %36, label %55

36:                                               ; preds = %32
  %37 = load i32, i32* %2, align 4
  %38 = sext i32 %37 to i64
  %39 = getelementptr inbounds [999 x %struct.author], [999 x %struct.author]* @a, i64 0, i64 %38
  %40 = getelementptr inbounds %struct.author, %struct.author* %39, i32 0, i32 1
  %41 = load i32, i32* %5, align 4
  %42 = sext i32 %41 to i64
  %43 = getelementptr inbounds [27 x i8], [27 x i8]* %40, i64 0, i64 %42
  %44 = load i8, i8* %43, align 1
  store i8 %44, i8* %8, align 1
  %45 = load i8, i8* %8, align 1
  %46 = sext i8 %45 to i32
  %47 = sub nsw i32 %46, 65
  %48 = sext i32 %47 to i64
  %49 = getelementptr inbounds [30 x i32], [30 x i32]* %3, i64 0, i64 %48
  %50 = load i32, i32* %49, align 4
  %51 = add nsw i32 %50, 1
  store i32 %51, i32* %49, align 4
  br label %52

52:                                               ; preds = %36
  %53 = load i32, i32* %5, align 4
  %54 = add nsw i32 %53, 1
  store i32 %54, i32* %5, align 4
  br label %32

55:                                               ; preds = %32
  br label %56

56:                                               ; preds = %55
  %57 = load i32, i32* %2, align 4
  %58 = add nsw i32 %57, 1
  store i32 %58, i32* %2, align 4
  br label %11

59:                                               ; preds = %11
  store i32 0, i32* %2, align 4
  br label %60

60:                                               ; preds = %77, %59
  %61 = load i32, i32* %2, align 4
  %62 = icmp slt i32 %61, 26
  br i1 %62, label %63, label %80

63:                                               ; preds = %60
  %64 = load i32, i32* %6, align 4
  %65 = load i32, i32* %2, align 4
  %66 = sext i32 %65 to i64
  %67 = getelementptr inbounds [30 x i32], [30 x i32]* %3, i64 0, i64 %66
  %68 = load i32, i32* %67, align 4
  %69 = icmp slt i32 %64, %68
  br i1 %69, label %70, label %76

70:                                               ; preds = %63
  %71 = load i32, i32* %2, align 4
  %72 = sext i32 %71 to i64
  %73 = getelementptr inbounds [30 x i32], [30 x i32]* %3, i64 0, i64 %72
  %74 = load i32, i32* %73, align 4
  store i32 %74, i32* %6, align 4
  %75 = load i32, i32* %2, align 4
  store i32 %75, i32* %7, align 4
  br label %76

76:                                               ; preds = %70, %63
  br label %77

77:                                               ; preds = %76
  %78 = load i32, i32* %2, align 4
  %79 = add nsw i32 %78, 1
  store i32 %79, i32* %2, align 4
  br label %60

80:                                               ; preds = %60
  %81 = load i32, i32* %7, align 4
  %82 = add nsw i32 %81, 65
  %83 = trunc i32 %82 to i8
  %84 = sext i8 %83 to i32
  %85 = load i32, i32* %6, align 4
  %86 = call i32 (i8*, ...) @printf(i8* getelementptr inbounds ([7 x i8], [7 x i8]* @.str.2, i64 0, i64 0), i32 %84, i32 %85)
  %87 = load i32, i32* %1, align 4
  %88 = load i32, i32* %7, align 4
  %89 = add nsw i32 %88, 65
  %90 = trunc i32 %89 to i8
  call void @search(%struct.author* getelementptr inbounds ([999 x %struct.author], [999 x %struct.author]* @a, i64 0, i64 0), i32 %87, i8 signext %90)
  ret void
}

; Function Attrs: argmemonly nounwind willreturn
declare void @llvm.memset.p0i8.i64(i8* nocapture writeonly, i8, i64, i1 immarg) #1

declare dso_local i32 @__isoc99_scanf(i8*, ...) #2

; Function Attrs: nounwind readonly
declare dso_local i64 @strlen(i8*) #3

declare dso_local i32 @printf(i8*, ...) #2

; Function Attrs: noinline nounwind uwtable
define dso_local void @search(%struct.author* %0, i32 %1, i8 signext %2) #0 {
  %4 = alloca %struct.author*, align 8
  %5 = alloca i32, align 4
  %6 = alloca i8, align 1
  %7 = alloca i32, align 4
  %8 = alloca i32, align 4
  store %struct.author* %0, %struct.author** %4, align 8
  store i32 %1, i32* %5, align 4
  store i8 %2, i8* %6, align 1
  store i32 0, i32* %7, align 4
  br label %9

9:                                                ; preds = %52, %3
  %10 = load i32, i32* %7, align 4
  %11 = load i32, i32* %5, align 4
  %12 = icmp slt i32 %10, %11
  br i1 %12, label %13, label %55

13:                                               ; preds = %9
  store i32 0, i32* %8, align 4
  br label %14

14:                                               ; preds = %48, %13
  %15 = load i32, i32* %8, align 4
  %16 = sext i32 %15 to i64
  %17 = load %struct.author*, %struct.author** %4, align 8
  %18 = load i32, i32* %7, align 4
  %19 = sext i32 %18 to i64
  %20 = getelementptr inbounds %struct.author, %struct.author* %17, i64 %19
  %21 = getelementptr inbounds %struct.author, %struct.author* %20, i32 0, i32 1
  %22 = getelementptr inbounds [27 x i8], [27 x i8]* %21, i64 0, i64 0
  %23 = call i64 @strlen(i8* %22) #4
  %24 = icmp ult i64 %16, %23
  br i1 %24, label %25, label %51

25:                                               ; preds = %14
  %26 = load %struct.author*, %struct.author** %4, align 8
  %27 = load i32, i32* %7, align 4
  %28 = sext i32 %27 to i64
  %29 = getelementptr inbounds %struct.author, %struct.author* %26, i64 %28
  %30 = getelementptr inbounds %struct.author, %struct.author* %29, i32 0, i32 1
  %31 = load i32, i32* %8, align 4
  %32 = sext i32 %31 to i64
  %33 = getelementptr inbounds [27 x i8], [27 x i8]* %30, i64 0, i64 %32
  %34 = load i8, i8* %33, align 1
  %35 = sext i8 %34 to i32
  %36 = load i8, i8* %6, align 1
  %37 = sext i8 %36 to i32
  %38 = icmp eq i32 %35, %37
  br i1 %38, label %39, label %47

39:                                               ; preds = %25
  %40 = load %struct.author*, %struct.author** %4, align 8
  %41 = load i32, i32* %7, align 4
  %42 = sext i32 %41 to i64
  %43 = getelementptr inbounds %struct.author, %struct.author* %40, i64 %42
  %44 = getelementptr inbounds %struct.author, %struct.author* %43, i32 0, i32 0
  %45 = load i32, i32* %44, align 4
  %46 = call i32 (i8*, ...) @printf(i8* getelementptr inbounds ([4 x i8], [4 x i8]* @.str.3, i64 0, i64 0), i32 %45)
  br label %47

47:                                               ; preds = %39, %25
  br label %48

48:                                               ; preds = %47
  %49 = load i32, i32* %8, align 4
  %50 = add nsw i32 %49, 1
  store i32 %50, i32* %8, align 4
  br label %14

51:                                               ; preds = %14
  br label %52

52:                                               ; preds = %51
  %53 = load i32, i32* %7, align 4
  %54 = add nsw i32 %53, 1
  store i32 %54, i32* %7, align 4
  br label %9

55:                                               ; preds = %9
  ret void
}


!llvm.module.flags = !{!0}
!llvm.ident = !{!1}

!0 = !{i32 1, !"wchar_size", i32 4}
!1 = !{!"clang version 10.0.0-4ubuntu1 "}
